target datalayout = "e-m:e-p270:32:32-p271:32:32-p272:64:64-i64:64-i128:128-f80:128-n8:16:32:64-S128"
target triple = "x86_64-pc-linux-gnu"

%struct.ffc_params_st = type { ptr, ptr, ptr, ptr, ptr, i64, i32, i32, i32, i32, i32, ptr, ptr, i32 }

@.str.9 = private unnamed_addr constant [36 x i8] c"../openssl/test/ffc_internal_test.c\00", align 1
@.str.17 = private unnamed_addr constant [81 x i8] c"ossl_ffc_params_FIPS186_4_validate(NULL, &params, FFC_PARAM_TYPE_DH, &res, NULL)\00", align 1
@.str.22 = private unnamed_addr constant [92 x i8] c"ossl_ffc_params_FIPS186_4_generate(NULL, &params, FFC_PARAM_TYPE_DH, 2048, 256, &res, NULL)\00", align 1

; Function Attrs: nounwind uwtable
define internal i32 @ffc_params_gen_test() #0 {
  %1 = alloca i32, align 4
  %2 = alloca i32, align 4
  %3 = alloca %struct.ffc_params_st, align 8
  call void @llvm.lifetime.start.p0(i64 4, ptr %1) #3
  store i32 0, ptr %1, align 4, !tbaa !4
  call void @llvm.lifetime.start.p0(i64 4, ptr %2) #3
  store i32 -1, ptr %2, align 4, !tbaa !4
  call void @llvm.lifetime.start.p0(i64 96, ptr %3) #3
  call void @ossl_ffc_params_init(ptr noundef %3)
  %4 = call i32 @ossl_ffc_params_FIPS186_4_generate(ptr noundef null, ptr noundef %3, i32 noundef 1, i64 noundef 2048, i64 noundef 256, ptr noundef %2, ptr noundef null)
  %5 = icmp ne i32 %4, 0
  %6 = zext i1 %5 to i32
  %7 = call i32 @test_true(ptr noundef @.str.9, i32 noundef 354, ptr noundef @.str.22, i32 noundef %6)
  %8 = icmp ne i32 %7, 0
  br i1 %8, label %10, label %9

9:                                                ; preds = %0
  br label %18

10:                                               ; preds = %0
  %11 = call i32 @ossl_ffc_params_FIPS186_4_validate(ptr noundef null, ptr noundef %3, i32 noundef 1, ptr noundef %2, ptr noundef null)
  %12 = icmp ne i32 %11, 0
  %13 = zext i1 %12 to i32
  %14 = call i32 @test_true(ptr noundef @.str.9, i32 noundef 358, ptr noundef @.str.17, i32 noundef %13)
  %15 = icmp ne i32 %14, 0
  br i1 %15, label %17, label %16

16:                                               ; preds = %10
  br label %18

17:                                               ; preds = %10
  store i32 1, ptr %1, align 4, !tbaa !4
  br label %18

18:                                               ; preds = %17, %16, %9
  call void @ossl_ffc_params_cleanup(ptr noundef %3)
  %19 = load i32, ptr %1, align 4, !tbaa !4
  call void @llvm.lifetime.end.p0(i64 96, ptr %3) #3
  call void @llvm.lifetime.end.p0(i64 4, ptr %2) #3
  call void @llvm.lifetime.end.p0(i64 4, ptr %1) #3
  ret i32 %19
}