; Function Attrs: nounwind uwtable
define internal range(i32 0, 2) i32 @ffc_params_gen_test() #0 {
  %1 = alloca i32, align 4
  %2 = alloca %struct.ffc_params_st, align 8
  call void @llvm.lifetime.start.p0(i64 4, ptr nonnull %1) #3
  store i32 -1, ptr %1, align 4, !tbaa !4
  call void @llvm.lifetime.start.p0(i64 96, ptr nonnull %2) #3
  call void @ossl_ffc_params_init(ptr noundef nonnull %2) #3
  %3 = call i32 @ossl_ffc_params_FIPS186_4_generate(ptr noundef null, ptr noundef nonnull %2, i32 noundef 1, i64 noundef 2048, i64 noundef 256, ptr noundef nonnull %1, ptr noundef null) #3
  %4 = icmp ne i32 %3, 0
  %5 = zext i1 %4 to i32
  %6 = call i32 @test_true(ptr noundef nonnull @.str.9, i32 noundef 354, ptr noundef nonnull @.str.22, i32 noundef %5) #3
  %.not = icmp eq i32 %6, 0
  br i1 %.not, label %12, label %7

7:                                                ; preds = %0
  %8 = call i32 @ossl_ffc_params_FIPS186_4_validate(ptr noundef null, ptr noundef nonnull %2, i32 noundef 1, ptr noundef nonnull %1, ptr noundef null) #3
  %9 = icmp ne i32 %8, 0
  %10 = zext i1 %9 to i32
  %11 = call i32 @test_true(ptr noundef nonnull @.str.9, i32 noundef 358, ptr noundef nonnull @.str.17, i32 noundef %10) #3
  %.not1 = icmp ne i32 %11, 0
  %spec.select = zext i1 %.not1 to i32
  br label %12

12:                                               ; preds = %7, %0
  %.0 = phi i32 [ 0, %0 ], [ %spec.select, %7 ]
  call void @ossl_ffc_params_cleanup(ptr noundef nonnull %2) #3
  call void @llvm.lifetime.end.p0(i64 96, ptr nonnull %2) #3
  call void @llvm.lifetime.end.p0(i64 4, ptr nonnull %1) #3
  ret i32 %.0
}